; Function Attrs: mustprogress noreturn uwtable
define internal void @"_ZNSt17_Function_handlerIFvPKcPKN4pbrt7FileLocEEZNS2_5parseEPNS2_12ParserTargetESt10unique_ptrINS2_9TokenizerESt14default_deleteISA_EEE3$_2E9_M_invokeERKSt9_Any_dataOS1_OS5_"(ptr nocapture nonnull readnone align 8 %__functor, ptr nocapture noundef nonnull readonly align 8 dereferenceable(8) %__args, ptr nocapture noundef nonnull readonly align 8 dereferenceable(8) %__args1) #4 align 2 {
entry:
  %msg.addr.i.i.i = alloca ptr, align 8
  %__args.val = load ptr, ptr %__args, align 8
  %__args1.val = load ptr, ptr %__args1, align 8
  call void @llvm.lifetime.start.p0(i64 8, ptr nonnull %msg.addr.i.i.i)
  store ptr %__args.val, ptr %msg.addr.i.i.i, align 8
  call void @_ZN4pbrt9ErrorExitIJRPKcEEEvPKNS_7FileLocES2_DpOT_(ptr noundef %__args1.val, ptr noundef nonnull @.str.293, ptr noundef nonnull align 8 dereferenceable(8) %msg.addr.i.i.i) #31
  unreachable
}